target datalayout = "e-m:e-p270:32:32-p271:32:32-p272:64:64-i64:64-i128:128-f80:128-n8:16:32:64-S128"
target triple = "x86_64-pc-linux-gnu"

%struct.AVFilterContext = type { ptr, ptr, ptr, ptr, ptr, i32, ptr, ptr, i32, ptr, ptr, i32, i32, ptr, ptr, ptr, ptr, i32, ptr, i32, i32 }
%struct.PaletteGenContext = type { ptr, i32, i32, i32, ptr, [32768 x %struct.hist_node], ptr, i32, [256 x %struct.range_box], i32, i32, [4 x i8] }
%struct.hist_node = type { ptr, i32 }
%struct.range_box = type { i32, %struct.Lab, i32, i64, i64, i32, i32, i32 }
%struct.Lab = type { i32, i32, i32 }

@.str.34 = private unnamed_addr constant [73 x i8] c"max_colors=2 is only allowed without reserving a transparent color slot\0A\00", align 1

; Function Attrs: nounwind uwtable
define internal i32 @init(ptr noundef %0) #0 {
  %2 = alloca i32, align 4
  %3 = alloca ptr, align 8
  %4 = alloca ptr, align 8
  %5 = alloca i32, align 4
  store ptr %0, ptr %3, align 8, !tbaa !4
  call void @llvm.lifetime.start.p0(i64 8, ptr %4) #10
  %6 = load ptr, ptr %3, align 8, !tbaa !4
  %7 = getelementptr inbounds nuw %struct.AVFilterContext, ptr %6, i32 0, i32 9
  %8 = load ptr, ptr %7, align 8, !tbaa !9
  store ptr %8, ptr %4, align 8, !tbaa !22
  %9 = load ptr, ptr %4, align 8, !tbaa !22
  %10 = getelementptr inbounds nuw %struct.PaletteGenContext, ptr %9, i32 0, i32 1
  %11 = load i32, ptr %10, align 8, !tbaa !24
  %12 = load ptr, ptr %4, align 8, !tbaa !22
  %13 = getelementptr inbounds nuw %struct.PaletteGenContext, ptr %12, i32 0, i32 2
  %14 = load i32, ptr %13, align 4, !tbaa !28
  %15 = sub nsw i32 %11, %14
  %16 = icmp slt i32 %15, 2
  br i1 %16, label %17, label %19

17:                                               ; preds = %1
  %18 = load ptr, ptr %3, align 8, !tbaa !4
  call void (ptr, i32, ptr, ...) @av_log(ptr noundef %18, i32 noundef 16, ptr noundef @.str.34)
  store i32 -22, ptr %2, align 4
  store i32 1, ptr %5, align 4
  br label %20

19:                                               ; preds = %1
  store i32 0, ptr %2, align 4
  store i32 1, ptr %5, align 4
  br label %20

20:                                               ; preds = %19, %17
  call void @llvm.lifetime.end.p0(i64 8, ptr %4) #10
  %21 = load i32, ptr %2, align 4
  ret i32 %21
}